target datalayout = "e-m:e-p270:32:32-p271:32:32-p272:64:64-i64:64-i128:128-f80:128-n8:16:32:64-S128"
target triple = "x86_64-pc-linux-gnu"

%struct._psqlSettings = type { ptr, i32, ptr, i8, ptr, ptr, %struct.printQueryOpt, ptr, ptr, ptr, i8, i8, i32, i32, ptr, ptr, i8, [4 x ptr], i8, i32, ptr, i8, i32, ptr, ptr, i64, i64, i8, ptr, ptr, ptr, i8, i8, i8, i8, i8, i8, i8, i32, i32, i32, i32, i32, i32, i32, i32, ptr, ptr, ptr, i32, i8, i32 }
%struct.printQueryOpt = type { %struct.printTableOpt, ptr, ptr, ptr, i8, ptr, i32 }
%struct.printTableOpt = type { i32, i16, i32, i32, i16, i16, i32, i8, i8, i8, i8, i64, ptr, %struct.separator, %struct.separator, [2 x i8], i8, ptr, i32, i32, i32, i32, i32, i32 }
%struct.separator = type { ptr, i8 }
%struct._hist_entry = type { ptr, ptr, ptr }

@useHistory = internal global i8 0, align 1
@pset = external global %struct._psqlSettings, align 8
@.str.8 = private unnamed_addr constant [2 x i8] c"w\00", align 1
@.str.9 = private unnamed_addr constant [40 x i8] c"could not save history to file \22%s\22: %m\00", align 1
@.str.10 = private unnamed_addr constant [4 x i8] c"%s\0A\00", align 1

; Function Attrs: nounwind uwtable
define dso_local zeroext i1 @printHistory(ptr noundef %0, i16 noundef zeroext %1) #0 {
  %3 = alloca i1, align 1
  %4 = alloca ptr, align 8
  %5 = alloca i16, align 2
  %6 = alloca ptr, align 8
  %7 = alloca i8, align 1
  %8 = alloca i32, align 4
  %9 = alloca ptr, align 8
  %10 = alloca i8, align 1
  store ptr %0, ptr %4, align 8
  store i16 %1, ptr %5, align 2
  call void @llvm.lifetime.start.p0(i64 8, ptr %6) #5
  call void @llvm.lifetime.start.p0(i64 1, ptr %7) #5
  %11 = load i8, ptr @useHistory, align 1, !range !4, !noundef !5
  %12 = trunc i8 %11 to i1
  br i1 %12, label %14, label %13

13:                                               ; preds = %2
  store i1 false, ptr %3, align 1
  store i32 1, ptr %8, align 4
  br label %68

14:                                               ; preds = %2
  %15 = load ptr, ptr %4, align 8
  %16 = icmp eq ptr %15, null
  br i1 %16, label %17, label %23

17:                                               ; preds = %14
  %18 = load i16, ptr %5, align 2
  %19 = zext i16 %18 to i32
  %20 = icmp ne i32 %19, 0
  %21 = select i1 %20, ptr getelementptr inbounds nuw (%struct._psqlSettings, ptr @pset, i32 0, i32 6), ptr null
  %22 = call ptr @PageOutput(i32 noundef 2147483647, ptr noundef %21)
  store ptr %22, ptr %6, align 8
  store i8 1, ptr %7, align 1
  br label %31

23:                                               ; preds = %14
  %24 = load ptr, ptr %4, align 8
  %25 = call noalias ptr @fopen(ptr noundef %24, ptr noundef @.str.8)
  store ptr %25, ptr %6, align 8
  %26 = load ptr, ptr %6, align 8
  %27 = icmp eq ptr %26, null
  br i1 %27, label %28, label %30

28:                                               ; preds = %23
  %29 = load ptr, ptr %4, align 8
  call void (i32, i32, ptr, ...) @pg_log_generic(i32 noundef 4, i32 noundef 0, ptr noundef @.str.9, ptr noundef %29)
  store i1 false, ptr %3, align 1
  store i32 1, ptr %8, align 4
  br label %68

30:                                               ; preds = %23
  store i8 0, ptr %7, align 1
  br label %31

31:                                               ; preds = %30, %17
  br label %32

32:                                               ; preds = %31
  call void @llvm.lifetime.start.p0(i64 8, ptr %9) #5
  call void @llvm.lifetime.start.p0(i64 1, ptr %10) #5
  %33 = call i32 @history_set_pos(i32 noundef 0)
  %34 = call ptr @previous_history()
  %35 = icmp ne ptr %34, null
  %36 = zext i1 %35 to i8
  store i8 %36, ptr %10, align 1
  %37 = call i32 @history_set_pos(i32 noundef 0)
  %38 = call ptr @current_history()
  store ptr %38, ptr %9, align 8
  br label %39

39:                                               ; preds = %55, %32
  %40 = load ptr, ptr %9, align 8
  %41 = icmp ne ptr %40, null
  br i1 %41, label %42, label %57

42:                                               ; preds = %39
  %43 = load ptr, ptr %6, align 8
  %44 = load ptr, ptr %9, align 8
  %45 = getelementptr inbounds nuw %struct._hist_entry, ptr %44, i32 0, i32 0
  %46 = load ptr, ptr %45, align 8
  %47 = call i32 (ptr, ptr, ...) @pg_fprintf(ptr noundef %43, ptr noundef @.str.10, ptr noundef %46)
  br label %48

48:                                               ; preds = %42
  %49 = load i8, ptr %10, align 1, !range !4, !noundef !5
  %50 = trunc i8 %49 to i1
  br i1 %50, label %51, label %53

51:                                               ; preds = %48
  %52 = call ptr @previous_history()
  br label %55

53:                                               ; preds = %48
  %54 = call ptr @next_history()
  br label %55

55:                                               ; preds = %53, %51
  %56 = phi ptr [ %52, %51 ], [ %54, %53 ]
  store ptr %56, ptr %9, align 8
  br label %39, !llvm.loop !10

57:                                               ; preds = %39
  call void @llvm.lifetime.end.p0(i64 1, ptr %10) #5
  call void @llvm.lifetime.end.p0(i64 8, ptr %9) #5
  br label %58

58:                                               ; preds = %57
  br label %59

59:                                               ; preds = %58
  %60 = load i8, ptr %7, align 1, !range !4, !noundef !5
  %61 = trunc i8 %60 to i1
  br i1 %61, label %62, label %64

62:                                               ; preds = %59
  %63 = load ptr, ptr %6, align 8
  call void @ClosePager(ptr noundef %63)
  br label %67

64:                                               ; preds = %59
  %65 = load ptr, ptr %6, align 8
  %66 = call i32 @fclose(ptr noundef %65)
  br label %67

67:                                               ; preds = %64, %62
  store i1 true, ptr %3, align 1
  store i32 1, ptr %8, align 4
  br label %68

68:                                               ; preds = %67, %28, %13
  call void @llvm.lifetime.end.p0(i64 1, ptr %7) #5
  call void @llvm.lifetime.end.p0(i64 8, ptr %6) #5
  %69 = load i1, ptr %3, align 1
  ret i1 %69
}