; Function Attrs: nounwind uwtable
define dso_local noundef zeroext i1 @printHistory(ptr noundef %0, i16 noundef zeroext %1) local_unnamed_addr #0 {
  %.b17 = load i1, ptr @useHistory, align 1
  br i1 %.b17, label %3, label %26

3:                                                ; preds = %2
  %4 = icmp eq ptr %0, null
  br i1 %4, label %5, label %8

5:                                                ; preds = %3
  %.not = icmp eq i16 %1, 0
  %6 = select i1 %.not, ptr null, ptr getelementptr inbounds nuw (i8, ptr @pset, i64 48)
  %7 = tail call ptr @PageOutput(i32 noundef 2147483647, ptr noundef %6) #9
  br label %12

8:                                                ; preds = %3
  %9 = tail call noalias ptr @fopen(ptr noundef nonnull %0, ptr noundef nonnull @.str.8)
  %10 = icmp eq ptr %9, null
  br i1 %10, label %11, label %12

11:                                               ; preds = %8
  tail call void (i32, i32, ptr, ...) @pg_log_generic(i32 noundef 4, i32 noundef 0, ptr noundef nonnull @.str.9, ptr noundef nonnull %0) #9
  br label %26

12:                                               ; preds = %8, %5
  %.014 = phi ptr [ %7, %5 ], [ %9, %8 ]
  %13 = tail call i32 @history_set_pos(i32 noundef 0) #9
  %14 = tail call ptr @previous_history() #9
  %15 = tail call i32 @history_set_pos(i32 noundef 0) #9
  %16 = tail call ptr @current_history() #9
  %.not1920 = icmp eq ptr %16, null
  br i1 %.not1920, label %._crit_edge, label %.lr.ph

.lr.ph:                                           ; preds = %12
  %.fr = freeze ptr %14
  %.not18 = icmp eq ptr %.fr, null
  br i1 %.not18, label %.lr.ph.split.us, label %.lr.ph.split

.lr.ph.split.us:                                  ; preds = %.lr.ph, %.lr.ph.split.us
  %.01221.us = phi ptr [ %19, %.lr.ph.split.us ], [ %16, %.lr.ph ]
  %17 = load ptr, ptr %.01221.us, align 8
  %18 = tail call i32 (ptr, ptr, ...) @pg_fprintf(ptr noundef %.014, ptr noundef nonnull @.str.10, ptr noundef %17) #9
  %19 = tail call ptr @next_history() #9
  %.not19.us = icmp eq ptr %19, null
  br i1 %.not19.us, label %._crit_edge, label %.lr.ph.split.us, !llvm.loop !10

.lr.ph.split:                                     ; preds = %.lr.ph, %.lr.ph.split
  %.01221 = phi ptr [ %22, %.lr.ph.split ], [ %16, %.lr.ph ]
  %20 = load ptr, ptr %.01221, align 8
  %21 = tail call i32 (ptr, ptr, ...) @pg_fprintf(ptr noundef %.014, ptr noundef nonnull @.str.10, ptr noundef %20) #9
  %22 = tail call ptr @previous_history() #9
  %.not19 = icmp eq ptr %22, null
  br i1 %.not19, label %._crit_edge, label %.lr.ph.split, !llvm.loop !10

._crit_edge:                                      ; preds = %.lr.ph.split, %.lr.ph.split.us, %12
  br i1 %4, label %23, label %24

23:                                               ; preds = %._crit_edge
  tail call void @ClosePager(ptr noundef %.014) #9
  br label %26

24:                                               ; preds = %._crit_edge
  %25 = tail call i32 @fclose(ptr noundef %.014)
  br label %26

26:                                               ; preds = %23, %24, %2, %11
  %.0 = phi i1 [ false, %11 ], [ false, %2 ], [ true, %24 ], [ true, %23 ]
  ret i1 %.0
}